; Function Attrs: nounwind uwtable
define void @nxsem_canceled(ptr noundef readnone captures(none) %0, ptr noundef captures(none) %1) local_unnamed_addr #2 {
  %3 = getelementptr inbounds nuw i8, ptr %1, i64 24
  %4 = load ptr, ptr %3, align 8
  %.not.i = icmp eq ptr %4, null
  br i1 %.not.i, label %nxsem_foreachholder.exit, label %.lr.ph.i

.lr.ph.i:                                         ; preds = %2, %nxsem_restoreholderprio.exit
  %.010.i = phi ptr [ %5, %nxsem_restoreholderprio.exit ], [ %4, %2 ]
  %5 = load ptr, ptr %.010.i, align 8
  %6 = getelementptr inbounds nuw i8, ptr %.010.i, i64 24
  %7 = load ptr, ptr %6, align 8
  %8 = getelementptr inbounds nuw i8, ptr %.010.i, i64 32
  %9 = load i16, ptr %8, align 8
  %10 = icmp slt i16 %9, 1
  br i1 %10, label %11, label %30

11:                                               ; preds = %.lr.ph.i
  %12 = getelementptr inbounds nuw i8, ptr %7, i64 56
  %13 = load ptr, ptr %12, align 8
  %.not28.i.i = icmp eq ptr %13, null
  br i1 %.not28.i.i, label %.loopexit25.i.i, label %.lr.ph.i.preheader.i

.lr.ph.i.preheader.i:                             ; preds = %11
  %14 = icmp eq ptr %13, %.010.i
  br i1 %14, label %.lr.ph.i._crit_edge.i, label %.lr.ph.i2

.lr.ph.i2:                                        ; preds = %.lr.ph.i.preheader.i, %.lr.ph.i.i
  %15 = phi ptr [ %17, %.lr.ph.i.i ], [ %13, %.lr.ph.i.preheader.i ]
  %16 = getelementptr inbounds nuw i8, ptr %15, i64 8
  %17 = load ptr, ptr %16, align 8
  %.not.i.i = icmp eq ptr %17, null
  br i1 %.not.i.i, label %.loopexit25.i.i, label %.lr.ph.i.i, !llvm.loop !8

.lr.ph.i.i:                                       ; preds = %.lr.ph.i2
  %18 = icmp eq ptr %17, %.010.i
  br i1 %18, label %.lr.ph.i._crit_edge.i.loopexit, label %.lr.ph.i2, !llvm.loop !8

.lr.ph.i._crit_edge.i.loopexit:                   ; preds = %.lr.ph.i.i
  %19 = getelementptr inbounds nuw i8, ptr %15, i64 8
  br label %.lr.ph.i._crit_edge.i

.lr.ph.i._crit_edge.i:                            ; preds = %.lr.ph.i._crit_edge.i.loopexit, %.lr.ph.i.preheader.i
  %.029.i.lcssa.i = phi ptr [ %12, %.lr.ph.i.preheader.i ], [ %19, %.lr.ph.i._crit_edge.i.loopexit ]
  %20 = getelementptr inbounds nuw i8, ptr %.010.i, i64 8
  %21 = load ptr, ptr %20, align 8
  store ptr %21, ptr %.029.i.lcssa.i, align 8
  br label %.loopexit25.i.i

.loopexit25.i.i:                                  ; preds = %.lr.ph.i2, %.lr.ph.i._crit_edge.i, %11
  %22 = getelementptr inbounds nuw i8, ptr %.010.i, i64 8
  tail call void @llvm.memset.p0.i64(ptr noundef nonnull align 8 dereferenceable(26) %22, i8 0, i64 26, i1 false)
  br label %23

23:                                               ; preds = %25, %.loopexit25.i.i
  %.1.i.i = phi ptr [ %3, %.loopexit25.i.i ], [ %24, %25 ]
  %24 = load ptr, ptr %.1.i.i, align 8
  %.not24.i.i = icmp eq ptr %24, null
  br i1 %.not24.i.i, label %nxsem_freeholder.exit.i, label %25

25:                                               ; preds = %23
  %26 = icmp eq ptr %24, %.010.i
  br i1 %26, label %27, label %23, !llvm.loop !9

27:                                               ; preds = %25
  %28 = load ptr, ptr %.010.i, align 8
  store ptr %28, ptr %.1.i.i, align 8
  br label %nxsem_freeholder.exit.i

nxsem_freeholder.exit.i:                          ; preds = %23, %27
  %29 = load ptr, ptr @g_freeholders, align 8
  store ptr %29, ptr %.010.i, align 8
  store ptr %.010.i, ptr @g_freeholders, align 8
  br label %30

30:                                               ; preds = %nxsem_freeholder.exit.i, %.lr.ph.i
  %31 = getelementptr inbounds nuw i8, ptr %7, i64 49
  %32 = load i8, ptr %31, align 1
  %33 = getelementptr inbounds nuw i8, ptr %7, i64 50
  %34 = load i8, ptr %33, align 2
  %..i.i = tail call i8 @llvm.umax.i8(i8 %32, i8 %34)
  %35 = getelementptr inbounds nuw i8, ptr %7, i64 28
  %36 = load i8, ptr %35, align 4
  %.not.i5.i = icmp eq i8 %36, %..i.i
  br i1 %.not.i5.i, label %nxsem_restoreholderprio.exit, label %37

37:                                               ; preds = %30
  %38 = zext i8 %..i.i to i32
  %39 = getelementptr inbounds nuw i8, ptr %7, i64 56
  %.01523.i.i = load ptr, ptr %39, align 8
  %.not2124.i.i = icmp eq ptr %.01523.i.i, null
  br i1 %.not2124.i.i, label %._crit_edge.i.i, label %.lr.ph.i6.i

.lr.ph.i6.i:                                      ; preds = %37, %48
  %.01526.i.i = phi ptr [ %.015.i.i, %48 ], [ %.01523.i.i, %37 ]
  %.025.i.i = phi i32 [ %.1.i7.i, %48 ], [ %38, %37 ]
  %40 = getelementptr inbounds nuw i8, ptr %.01526.i.i, i64 16
  %41 = load ptr, ptr %40, align 8
  %42 = getelementptr inbounds nuw i8, ptr %41, i64 8
  %43 = load ptr, ptr %42, align 8
  %.not22.i.i = icmp eq ptr %43, null
  br i1 %.not22.i.i, label %48, label %44

44:                                               ; preds = %.lr.ph.i6.i
  %45 = getelementptr inbounds nuw i8, ptr %43, i64 28
  %46 = load i8, ptr %45, align 4
  %47 = zext i8 %46 to i32
  %spec.select.i.i = tail call i32 @llvm.smax.i32(i32 %.025.i.i, i32 %47)
  br label %48

48:                                               ; preds = %44, %.lr.ph.i6.i
  %.1.i7.i = phi i32 [ %.025.i.i, %.lr.ph.i6.i ], [ %spec.select.i.i, %44 ]
  %49 = getelementptr inbounds nuw i8, ptr %.01526.i.i, i64 8
  %.015.i.i = load ptr, ptr %49, align 8
  %.not21.i.i = icmp eq ptr %.015.i.i, null
  br i1 %.not21.i.i, label %._crit_edge.i.i, label %.lr.ph.i6.i, !llvm.loop !13

._crit_edge.i.i:                                  ; preds = %48, %37
  %.0.lcssa.i.i = phi i32 [ %38, %37 ], [ %.1.i7.i, %48 ]
  %50 = tail call i32 @nxsched_set_priority(ptr noundef %7, i32 noundef %.0.lcssa.i.i) #7
  br label %nxsem_restoreholderprio.exit

nxsem_restoreholderprio.exit:                     ; preds = %30, %._crit_edge.i.i
  %.not = icmp eq ptr %5, null
  br i1 %.not, label %nxsem_foreachholder.exit, label %.lr.ph.i, !llvm.loop !10

nxsem_foreachholder.exit:                         ; preds = %nxsem_restoreholderprio.exit, %2
  ret void
}